#include <math.h>
#include <stdio.h>
#include <stdlib.h>
#include <string.h>




int main(){
    int row,col,r,c,a[100][100],s,n;
    scanf("%d%d",&row,&col);
    s=0;
    for(r=0;r<row;r++){
        for(c=0;c<col;c++){
            scanf("%d",&a[r][c]);
        }
    }for(n=0;n<100;n++){
        for(c=n;c<col-n;c++){
            printf("%d\n",a[n][c]);
            s++;
        }
        printf("\n");
        if(s==row*col){
            break;
        }for(r=n+1;r<row-n;r++){
            printf("%d\n",a[r][col-1-n]);
            s++;
        }printf("\n");
        if(s==row*col)
        break;
        for(c=col-2-n;c>=n;c--){
            printf("%d\n",a[row-1-n][c]);
            s++;
        }
        printf("\n");
        if(s==row*col)
        break;
        for(r=row-2-n;r>n;r--){
            printf("%d\n",a[r][n]);
            s++;
        }printf("\n");
        if(s==row*col){
            break;
        }
    }
    return 0;
}